target datalayout = "e-m:e-p270:32:32-p271:32:32-p272:64:64-i64:64-i128:128-f80:128-n8:16:32:64-S128"
target triple = "x86_64-pc-linux-gnu"

@hf_r3_commandlength = internal global i32 0, align 4
@hf_r3_command = internal global i32 0, align 4
@hf_r3_deleteusers = internal global i32 0, align 4

; Function Attrs: null_pointer_is_valid sspstrong uwtable
define internal void @dissect_r3_cmd_deleteusers(ptr noundef %0, i32 noundef %1, i32 noundef %2, ptr noundef %3, ptr noundef %4) #0 {
  %6 = alloca ptr, align 8
  %7 = alloca i32, align 4
  %8 = alloca i32, align 4
  %9 = alloca ptr, align 8
  %10 = alloca ptr, align 8
  %11 = alloca i8, align 1
  %12 = alloca ptr, align 8
  %13 = alloca i32, align 4
  store ptr %0, ptr %6, align 8
  store i32 %1, ptr %7, align 4
  store i32 %2, ptr %8, align 4
  store ptr %3, ptr %9, align 8
  store ptr %4, ptr %10, align 8
  call void @llvm.lifetime.start.p0(i64 1, ptr %11) #5
  call void @llvm.lifetime.start.p0(i64 8, ptr %12) #5
  %14 = load ptr, ptr %10, align 8
  %15 = icmp ne ptr %14, null
  br i1 %15, label %17, label %16

16:                                               ; preds = %5
  store i32 1, ptr %13, align 4
  br label %45

17:                                               ; preds = %5
  %18 = load ptr, ptr %6, align 8
  %19 = load i32, ptr %7, align 4
  %20 = add i32 %19, 0
  %21 = call zeroext i8 @tvb_get_uint8(ptr noundef %18, i32 noundef %20)
  store i8 %21, ptr %11, align 1
  %22 = load ptr, ptr %6, align 8
  %23 = load i32, ptr %7, align 4
  %24 = add i32 %23, 2
  %25 = load i8, ptr %11, align 1
  %26 = zext i8 %25 to i32
  %27 = sub i32 %26, 2
  %28 = call ptr @tvb_new_subset_length(ptr noundef %22, i32 noundef %24, i32 noundef %27)
  store ptr %28, ptr %12, align 8
  %29 = load ptr, ptr %10, align 8
  %30 = load i32, ptr @hf_r3_commandlength, align 4
  %31 = load ptr, ptr %6, align 8
  %32 = load i32, ptr %7, align 4
  %33 = add i32 %32, 0
  %34 = call ptr @proto_tree_add_item(ptr noundef %29, i32 noundef %30, ptr noundef %31, i32 noundef %33, i32 noundef 1, i32 noundef -2147483648)
  %35 = load ptr, ptr %10, align 8
  %36 = load i32, ptr @hf_r3_command, align 4
  %37 = load ptr, ptr %6, align 8
  %38 = load i32, ptr %7, align 4
  %39 = add i32 %38, 1
  %40 = call ptr @proto_tree_add_item(ptr noundef %35, i32 noundef %36, ptr noundef %37, i32 noundef %39, i32 noundef 1, i32 noundef -2147483648)
  %41 = load ptr, ptr %10, align 8
  %42 = load i32, ptr @hf_r3_deleteusers, align 4
  %43 = load ptr, ptr %12, align 8
  %44 = call ptr @proto_tree_add_item(ptr noundef %41, i32 noundef %42, ptr noundef %43, i32 noundef 0, i32 noundef 1, i32 noundef -2147483648)
  store i32 0, ptr %13, align 4
  br label %45

45:                                               ; preds = %17, %16
  call void @llvm.lifetime.end.p0(i64 8, ptr %12) #5
  call void @llvm.lifetime.end.p0(i64 1, ptr %11) #5
  %46 = load i32, ptr %13, align 4
  switch i32 %46, label %48 [
    i32 0, label %47
    i32 1, label %47
  ]

47:                                               ; preds = %45, %45
  ret void

48:                                               ; preds = %45
  unreachable
}